target datalayout = "e-m:e-p270:32:32-p271:32:32-p272:64:64-i64:64-i128:128-f80:128-n8:16:32:64-S128"
target triple = "x86_64-pc-linux-gnu"

; Function Attrs: alwaysinline nounwind uwtable
define internal void @_mm_store_si128(ptr noundef %0, <2 x i64> noundef %1) #3 {
  %3 = alloca ptr, align 8
  %4 = alloca <2 x i64>, align 16
  store ptr %0, ptr %3, align 8, !tbaa !16
  store <2 x i64> %1, ptr %4, align 16, !tbaa !10
  %5 = load <2 x i64>, ptr %4, align 16, !tbaa !10
  %6 = load ptr, ptr %3, align 8, !tbaa !16
  store <2 x i64> %5, ptr %6, align 16, !tbaa !10
  ret void
}

; Function Attrs: alwaysinline nounwind uwtable
define internal <2 x i64> @_mm_sub_epi32(<2 x i64> noundef %0, <2 x i64> noundef %1) #3 {
  %3 = alloca <2 x i64>, align 16
  %4 = alloca <2 x i64>, align 16
  store <2 x i64> %0, ptr %3, align 16, !tbaa !10
  store <2 x i64> %1, ptr %4, align 16, !tbaa !10
  %5 = load <2 x i64>, ptr %3, align 16, !tbaa !10
  %6 = bitcast <2 x i64> %5 to <4 x i32>
  %7 = load <2 x i64>, ptr %4, align 16, !tbaa !10
  %8 = bitcast <2 x i64> %7 to <4 x i32>
  %9 = sub <4 x i32> %6, %8
  %10 = bitcast <4 x i32> %9 to <2 x i64>
  ret <2 x i64> %10
}

; Function Attrs: alwaysinline nounwind uwtable
define internal <2 x i64> @_mm_srai_epi32(<2 x i64> noundef %0, i32 noundef %1) #3 {
  %3 = alloca <2 x i64>, align 16
  %4 = alloca i32, align 4
  store <2 x i64> %0, ptr %3, align 16, !tbaa !10
  store i32 %1, ptr %4, align 4, !tbaa !13
  %5 = load <2 x i64>, ptr %3, align 16, !tbaa !10
  %6 = bitcast <2 x i64> %5 to <4 x i32>
  %7 = load i32, ptr %4, align 4, !tbaa !13
  %8 = call <4 x i32> @llvm.x86.sse2.psrai.d(<4 x i32> %6, i32 %7)
  %9 = bitcast <4 x i32> %8 to <2 x i64>
  ret <2 x i64> %9
}

; Function Attrs: alwaysinline nounwind uwtable
define internal <2 x i64> @_mm_add_epi32(<2 x i64> noundef %0, <2 x i64> noundef %1) #3 {
  %3 = alloca <2 x i64>, align 16
  %4 = alloca <2 x i64>, align 16
  store <2 x i64> %0, ptr %3, align 16, !tbaa !10
  store <2 x i64> %1, ptr %4, align 16, !tbaa !10
  %5 = load <2 x i64>, ptr %3, align 16, !tbaa !10
  %6 = bitcast <2 x i64> %5 to <4 x i32>
  %7 = load <2 x i64>, ptr %4, align 16, !tbaa !10
  %8 = bitcast <2 x i64> %7 to <4 x i32>
  %9 = add <4 x i32> %6, %8
  %10 = bitcast <4 x i32> %9 to <2 x i64>
  ret <2 x i64> %10
}

; Function Attrs: alwaysinline nounwind uwtable
define internal <2 x i64> @_mm_load_si128(ptr noundef %0) #3 {
  %2 = alloca ptr, align 8
  store ptr %0, ptr %2, align 8, !tbaa !16
  %3 = load ptr, ptr %2, align 8, !tbaa !16
  %4 = load <2 x i64>, ptr %3, align 16, !tbaa !10
  ret <2 x i64> %4
}

; Function Attrs: nounwind uwtable
define hidden void @opj_mct_decode(ptr noalias noundef %0, ptr noalias noundef %1, ptr noalias noundef %2, i64 noundef %3) #1 {
  %5 = alloca ptr, align 8
  %6 = alloca ptr, align 8
  %7 = alloca ptr, align 8
  %8 = alloca i64, align 8
  %9 = alloca i64, align 8
  %10 = alloca i64, align 8
  %11 = alloca <2 x i64>, align 16
  %12 = alloca <2 x i64>, align 16
  %13 = alloca <2 x i64>, align 16
  %14 = alloca <2 x i64>, align 16
  %15 = alloca <2 x i64>, align 16
  %16 = alloca <2 x i64>, align 16
  %17 = alloca i32, align 4
  %18 = alloca i32, align 4
  %19 = alloca i32, align 4
  %20 = alloca i32, align 4
  %21 = alloca i32, align 4
  %22 = alloca i32, align 4
  store ptr %0, ptr %5, align 8, !tbaa !3
  store ptr %1, ptr %6, align 8, !tbaa !3
  store ptr %2, ptr %7, align 8, !tbaa !3
  store i64 %3, ptr %8, align 8, !tbaa !8
  call void @llvm.lifetime.start.p0(i64 8, ptr %9) #9
  call void @llvm.lifetime.start.p0(i64 8, ptr %10) #9
  %23 = load i64, ptr %8, align 8, !tbaa !8
  store i64 %23, ptr %10, align 8, !tbaa !8
  store i64 0, ptr %9, align 8, !tbaa !8
  br label %24

24:                                               ; preds = %67, %4
  %25 = load i64, ptr %9, align 8, !tbaa !8
  %26 = load i64, ptr %10, align 8, !tbaa !8
  %27 = and i64 %26, 4294967292
  %28 = icmp ult i64 %25, %27
  br i1 %28, label %29, label %70

29:                                               ; preds = %24
  call void @llvm.lifetime.start.p0(i64 16, ptr %11) #9
  call void @llvm.lifetime.start.p0(i64 16, ptr %12) #9
  call void @llvm.lifetime.start.p0(i64 16, ptr %13) #9
  call void @llvm.lifetime.start.p0(i64 16, ptr %14) #9
  %30 = load ptr, ptr %5, align 8, !tbaa !3
  %31 = load i64, ptr %9, align 8, !tbaa !8
  %32 = getelementptr inbounds nuw i32, ptr %30, i64 %31
  %33 = call <2 x i64> @_mm_load_si128(ptr noundef %32)
  store <2 x i64> %33, ptr %14, align 16, !tbaa !10
  call void @llvm.lifetime.start.p0(i64 16, ptr %15) #9
  %34 = load ptr, ptr %6, align 8, !tbaa !3
  %35 = load i64, ptr %9, align 8, !tbaa !8
  %36 = getelementptr inbounds nuw i32, ptr %34, i64 %35
  %37 = call <2 x i64> @_mm_load_si128(ptr noundef %36)
  store <2 x i64> %37, ptr %15, align 16, !tbaa !10
  call void @llvm.lifetime.start.p0(i64 16, ptr %16) #9
  %38 = load ptr, ptr %7, align 8, !tbaa !3
  %39 = load i64, ptr %9, align 8, !tbaa !8
  %40 = getelementptr inbounds nuw i32, ptr %38, i64 %39
  %41 = call <2 x i64> @_mm_load_si128(ptr noundef %40)
  store <2 x i64> %41, ptr %16, align 16, !tbaa !10
  %42 = load <2 x i64>, ptr %14, align 16, !tbaa !10
  store <2 x i64> %42, ptr %12, align 16, !tbaa !10
  %43 = load <2 x i64>, ptr %12, align 16, !tbaa !10
  %44 = load <2 x i64>, ptr %15, align 16, !tbaa !10
  %45 = load <2 x i64>, ptr %16, align 16, !tbaa !10
  %46 = call <2 x i64> @_mm_add_epi32(<2 x i64> noundef %44, <2 x i64> noundef %45)
  %47 = call <2 x i64> @_mm_srai_epi32(<2 x i64> noundef %46, i32 noundef 2)
  %48 = call <2 x i64> @_mm_sub_epi32(<2 x i64> noundef %43, <2 x i64> noundef %47)
  store <2 x i64> %48, ptr %12, align 16, !tbaa !10
  %49 = load <2 x i64>, ptr %16, align 16, !tbaa !10
  %50 = load <2 x i64>, ptr %12, align 16, !tbaa !10
  %51 = call <2 x i64> @_mm_add_epi32(<2 x i64> noundef %49, <2 x i64> noundef %50)
  store <2 x i64> %51, ptr %11, align 16, !tbaa !10
  %52 = load <2 x i64>, ptr %15, align 16, !tbaa !10
  %53 = load <2 x i64>, ptr %12, align 16, !tbaa !10
  %54 = call <2 x i64> @_mm_add_epi32(<2 x i64> noundef %52, <2 x i64> noundef %53)
  store <2 x i64> %54, ptr %13, align 16, !tbaa !10
  %55 = load ptr, ptr %5, align 8, !tbaa !3
  %56 = load i64, ptr %9, align 8, !tbaa !8
  %57 = getelementptr inbounds nuw i32, ptr %55, i64 %56
  %58 = load <2 x i64>, ptr %11, align 16, !tbaa !10
  call void @_mm_store_si128(ptr noundef %57, <2 x i64> noundef %58)
  %59 = load ptr, ptr %6, align 8, !tbaa !3
  %60 = load i64, ptr %9, align 8, !tbaa !8
  %61 = getelementptr inbounds nuw i32, ptr %59, i64 %60
  %62 = load <2 x i64>, ptr %12, align 16, !tbaa !10
  call void @_mm_store_si128(ptr noundef %61, <2 x i64> noundef %62)
  %63 = load ptr, ptr %7, align 8, !tbaa !3
  %64 = load i64, ptr %9, align 8, !tbaa !8
  %65 = getelementptr inbounds nuw i32, ptr %63, i64 %64
  %66 = load <2 x i64>, ptr %13, align 16, !tbaa !10
  call void @_mm_store_si128(ptr noundef %65, <2 x i64> noundef %66)
  call void @llvm.lifetime.end.p0(i64 16, ptr %16) #9
  call void @llvm.lifetime.end.p0(i64 16, ptr %15) #9
  call void @llvm.lifetime.end.p0(i64 16, ptr %14) #9
  call void @llvm.lifetime.end.p0(i64 16, ptr %13) #9
  call void @llvm.lifetime.end.p0(i64 16, ptr %12) #9
  call void @llvm.lifetime.end.p0(i64 16, ptr %11) #9
  br label %67

67:                                               ; preds = %29
  %68 = load i64, ptr %9, align 8, !tbaa !8
  %69 = add i64 %68, 4
  store i64 %69, ptr %9, align 8, !tbaa !8
  br label %24, !llvm.loop !17

70:                                               ; preds = %24
  br label %71

71:                                               ; preds = %112, %70
  %72 = load i64, ptr %9, align 8, !tbaa !8
  %73 = load i64, ptr %10, align 8, !tbaa !8
  %74 = icmp ult i64 %72, %73
  br i1 %74, label %75, label %115

75:                                               ; preds = %71
  call void @llvm.lifetime.start.p0(i64 4, ptr %17) #9
  %76 = load ptr, ptr %5, align 8, !tbaa !3
  %77 = load i64, ptr %9, align 8, !tbaa !8
  %78 = getelementptr inbounds nuw i32, ptr %76, i64 %77
  %79 = load i32, ptr %78, align 4, !tbaa !13
  store i32 %79, ptr %17, align 4, !tbaa !13
  call void @llvm.lifetime.start.p0(i64 4, ptr %18) #9
  %80 = load ptr, ptr %6, align 8, !tbaa !3
  %81 = load i64, ptr %9, align 8, !tbaa !8
  %82 = getelementptr inbounds nuw i32, ptr %80, i64 %81
  %83 = load i32, ptr %82, align 4, !tbaa !13
  store i32 %83, ptr %18, align 4, !tbaa !13
  call void @llvm.lifetime.start.p0(i64 4, ptr %19) #9
  %84 = load ptr, ptr %7, align 8, !tbaa !3
  %85 = load i64, ptr %9, align 8, !tbaa !8
  %86 = getelementptr inbounds nuw i32, ptr %84, i64 %85
  %87 = load i32, ptr %86, align 4, !tbaa !13
  store i32 %87, ptr %19, align 4, !tbaa !13
  call void @llvm.lifetime.start.p0(i64 4, ptr %20) #9
  %88 = load i32, ptr %17, align 4, !tbaa !13
  %89 = load i32, ptr %18, align 4, !tbaa !13
  %90 = load i32, ptr %19, align 4, !tbaa !13
  %91 = add nsw i32 %89, %90
  %92 = ashr i32 %91, 2
  %93 = sub nsw i32 %88, %92
  store i32 %93, ptr %20, align 4, !tbaa !13
  call void @llvm.lifetime.start.p0(i64 4, ptr %21) #9
  %94 = load i32, ptr %19, align 4, !tbaa !13
  %95 = load i32, ptr %20, align 4, !tbaa !13
  %96 = add nsw i32 %94, %95
  store i32 %96, ptr %21, align 4, !tbaa !13
  call void @llvm.lifetime.start.p0(i64 4, ptr %22) #9
  %97 = load i32, ptr %18, align 4, !tbaa !13
  %98 = load i32, ptr %20, align 4, !tbaa !13
  %99 = add nsw i32 %97, %98
  store i32 %99, ptr %22, align 4, !tbaa !13
  %100 = load i32, ptr %21, align 4, !tbaa !13
  %101 = load ptr, ptr %5, align 8, !tbaa !3
  %102 = load i64, ptr %9, align 8, !tbaa !8
  %103 = getelementptr inbounds nuw i32, ptr %101, i64 %102
  store i32 %100, ptr %103, align 4, !tbaa !13
  %104 = load i32, ptr %20, align 4, !tbaa !13
  %105 = load ptr, ptr %6, align 8, !tbaa !3
  %106 = load i64, ptr %9, align 8, !tbaa !8
  %107 = getelementptr inbounds nuw i32, ptr %105, i64 %106
  store i32 %104, ptr %107, align 4, !tbaa !13
  %108 = load i32, ptr %22, align 4, !tbaa !13
  %109 = load ptr, ptr %7, align 8, !tbaa !3
  %110 = load i64, ptr %9, align 8, !tbaa !8
  %111 = getelementptr inbounds nuw i32, ptr %109, i64 %110
  store i32 %108, ptr %111, align 4, !tbaa !13
  call void @llvm.lifetime.end.p0(i64 4, ptr %22) #9
  call void @llvm.lifetime.end.p0(i64 4, ptr %21) #9
  call void @llvm.lifetime.end.p0(i64 4, ptr %20) #9
  call void @llvm.lifetime.end.p0(i64 4, ptr %19) #9
  call void @llvm.lifetime.end.p0(i64 4, ptr %18) #9
  call void @llvm.lifetime.end.p0(i64 4, ptr %17) #9
  br label %112

112:                                              ; preds = %75
  %113 = load i64, ptr %9, align 8, !tbaa !8
  %114 = add i64 %113, 1
  store i64 %114, ptr %9, align 8, !tbaa !8
  br label %71, !llvm.loop !18

115:                                              ; preds = %71
  call void @llvm.lifetime.end.p0(i64 8, ptr %10) #9
  call void @llvm.lifetime.end.p0(i64 8, ptr %9) #9
  ret void
}