; Function Attrs: nofree norecurse nosync nounwind memory(argmem: readwrite) uwtable
define hidden void @opj_mct_decode(ptr noalias noundef captures(none) %0, ptr noalias noundef captures(none) %1, ptr noalias noundef captures(none) %2, i64 noundef %3) local_unnamed_addr #1 {
  %5 = and i64 %3, 4294967292
  %.not = icmp eq i64 %5, 0
  br i1 %.not, label %.preheader, label %.lr.ph

.preheader:                                       ; preds = %.lr.ph, %4
  %.0.lcssa = phi i64 [ 0, %4 ], [ %18, %.lr.ph ]
  %6 = icmp ult i64 %.0.lcssa, %3
  br i1 %6, label %.lr.ph53, label %._crit_edge

.lr.ph:                                           ; preds = %4, %.lr.ph
  %.051 = phi i64 [ %18, %.lr.ph ], [ 0, %4 ]
  %7 = getelementptr inbounds nuw i32, ptr %0, i64 %.051
  %8 = load <4 x i32>, ptr %7, align 16, !tbaa !3
  %9 = getelementptr inbounds nuw i32, ptr %1, i64 %.051
  %10 = load <4 x i32>, ptr %9, align 16, !tbaa !3
  %11 = getelementptr inbounds nuw i32, ptr %2, i64 %.051
  %12 = load <4 x i32>, ptr %11, align 16, !tbaa !3
  %13 = add <4 x i32> %12, %10
  %14 = ashr <4 x i32> %13, splat (i32 2)
  %15 = sub <4 x i32> %8, %14
  %16 = add <4 x i32> %15, %12
  %17 = add <4 x i32> %15, %10
  store <4 x i32> %16, ptr %7, align 16, !tbaa !3
  store <4 x i32> %15, ptr %9, align 16, !tbaa !3
  store <4 x i32> %17, ptr %11, align 16, !tbaa !3
  %18 = add nuw nsw i64 %.051, 4
  %19 = icmp samesign ult i64 %18, %5
  br i1 %19, label %.lr.ph, label %.preheader, !llvm.loop !11

.lr.ph53:                                         ; preds = %.preheader, %.lr.ph53
  %.152 = phi i64 [ %31, %.lr.ph53 ], [ %.0.lcssa, %.preheader ]
  %20 = getelementptr inbounds nuw i32, ptr %0, i64 %.152
  %21 = load i32, ptr %20, align 4, !tbaa !8
  %22 = getelementptr inbounds nuw i32, ptr %1, i64 %.152
  %23 = load i32, ptr %22, align 4, !tbaa !8
  %24 = getelementptr inbounds nuw i32, ptr %2, i64 %.152
  %25 = load i32, ptr %24, align 4, !tbaa !8
  %26 = add nsw i32 %25, %23
  %27 = ashr i32 %26, 2
  %28 = sub nsw i32 %21, %27
  %29 = add nsw i32 %28, %25
  %30 = add nsw i32 %28, %23
  store i32 %29, ptr %20, align 4, !tbaa !8
  store i32 %28, ptr %22, align 4, !tbaa !8
  store i32 %30, ptr %24, align 4, !tbaa !8
  %31 = add nuw i64 %.152, 1
  %exitcond.not = icmp eq i64 %31, %3
  br i1 %exitcond.not, label %._crit_edge, label %.lr.ph53, !llvm.loop !12

._crit_edge:                                      ; preds = %.lr.ph53, %.preheader
  ret void
}